; Function Attrs: mustprogress nounwind uwtable
define hidden noundef zeroext i1 @_ZN4cvc58internal6theory11quantifiers13UnifContextIo20updateStringPositionEPNS2_11SygusUnifIoERSt6vectorImSaImEENS2_8NodeRoleE(ptr noundef nonnull align 8 dereferenceable(124) %this, ptr nocapture noundef readnone %sui, ptr nocapture noundef nonnull readonly align 8 dereferenceable(24) %pos, i32 noundef %nrole) local_unnamed_addr #4 align 2 personality ptr @__gxx_personality_v0 {
entry:
  %_M_finish.i = getelementptr inbounds i8, ptr %pos, i64 8
  %0 = load ptr, ptr %_M_finish.i, align 8
  %1 = load ptr, ptr %pos, align 8
  %cmp14.not = icmp eq ptr %0, %1
  br i1 %cmp14.not, label %if.end12, label %for.body.lr.ph

for.body.lr.ph:                                   ; preds = %entry
  %d_str_pos = getelementptr inbounds i8, ptr %this, i64 32
  br label %for.body

for.body:                                         ; preds = %for.body.lr.ph, %for.inc
  %2 = phi ptr [ %1, %for.body.lr.ph ], [ %8, %for.inc ]
  %3 = phi ptr [ %0, %for.body.lr.ph ], [ %9, %for.inc ]
  %conv17 = phi i64 [ 0, %for.body.lr.ph ], [ %conv, %for.inc ]
  %i.016 = phi i32 [ 0, %for.body.lr.ph ], [ %inc, %for.inc ]
  %changed.015 = phi i8 [ 0, %for.body.lr.ph ], [ %changed.1, %for.inc ]
  %add.ptr.i = getelementptr inbounds i64, ptr %2, i64 %conv17
  %4 = load i64, ptr %add.ptr.i, align 8
  %cmp4.not = icmp eq i64 %4, 0
  br i1 %cmp4.not, label %for.inc, label %if.then

if.then:                                          ; preds = %for.body
  %5 = load ptr, ptr %d_str_pos, align 8
  %add.ptr.i9 = getelementptr inbounds i32, ptr %5, i64 %conv17
  %6 = load i32, ptr %add.ptr.i9, align 4
  %7 = trunc i64 %4 to i32
  %conv10 = add i32 %6, %7
  store i32 %conv10, ptr %add.ptr.i9, align 4
  %.pre = load ptr, ptr %_M_finish.i, align 8
  %.pre18 = load ptr, ptr %pos, align 8
  br label %for.inc

for.inc:                                          ; preds = %for.body, %if.then
  %8 = phi ptr [ %.pre18, %if.then ], [ %2, %for.body ]
  %9 = phi ptr [ %.pre, %if.then ], [ %3, %for.body ]
  %changed.1 = phi i8 [ 1, %if.then ], [ %changed.015, %for.body ]
  %inc = add i32 %i.016, 1
  %conv = zext i32 %inc to i64
  %sub.ptr.lhs.cast.i = ptrtoint ptr %9 to i64
  %sub.ptr.rhs.cast.i = ptrtoint ptr %8 to i64
  %sub.ptr.sub.i = sub i64 %sub.ptr.lhs.cast.i, %sub.ptr.rhs.cast.i
  %sub.ptr.div.i = ashr exact i64 %sub.ptr.sub.i, 3
  %cmp = icmp ugt i64 %sub.ptr.div.i, %conv
  br i1 %cmp, label %for.body, label %for.end, !llvm.loop !8

for.end:                                          ; preds = %for.inc
  %10 = and i8 %changed.1, 1
  %.not = icmp eq i8 %10, 0
  br i1 %.not, label %if.end12, label %if.then11

if.then11:                                        ; preds = %for.end
  %d_visit_role = getelementptr inbounds i8, ptr %this, i64 56
  %_M_parent.i.i.i.i = getelementptr inbounds i8, ptr %this, i64 72
  %11 = load ptr, ptr %_M_parent.i.i.i.i, align 8
  invoke void @_ZNSt8_Rb_treeIN4cvc58internal12NodeTemplateILb1EEESt4pairIKS3_St3mapINS1_6theory11quantifiers8NodeRoleEbSt4lessIS9_ESaIS4_IKS9_bEEEESt10_Select1stISG_ESA_IS3_ESaISG_EE8_M_eraseEPSt13_Rb_tree_nodeISG_E(ptr noundef nonnull align 8 dereferenceable(48) %d_visit_role, ptr noundef %11)
          to label %_ZNSt3mapIN4cvc58internal12NodeTemplateILb1EEES_INS1_6theory11quantifiers8NodeRoleEbSt4lessIS6_ESaISt4pairIKS6_bEEES7_IS3_ESaIS9_IKS3_SD_EEE5clearEv.exit unwind label %terminate.lpad.i.i

terminate.lpad.i.i:                               ; preds = %if.then11
  %12 = landingpad { ptr, i32 }
          catch ptr null
  %13 = extractvalue { ptr, i32 } %12, 0
  tail call void @__clang_call_terminate(ptr %13) #24
  unreachable

_ZNSt3mapIN4cvc58internal12NodeTemplateILb1EEES_INS1_6theory11quantifiers8NodeRoleEbSt4lessIS6_ESaISt4pairIKS6_bEEES7_IS3_ESaIS9_IKS3_SD_EEE5clearEv.exit: ; preds = %if.then11
  %add.ptr.i.i = getelementptr inbounds i8, ptr %this, i64 64
  store ptr null, ptr %_M_parent.i.i.i.i, align 8
  %_M_left.i.i.i = getelementptr inbounds i8, ptr %this, i64 80
  store ptr %add.ptr.i.i, ptr %_M_left.i.i.i, align 8
  %_M_right.i.i.i = getelementptr inbounds i8, ptr %this, i64 88
  store ptr %add.ptr.i.i, ptr %_M_right.i.i.i, align 8
  %_M_node_count.i.i.i = getelementptr inbounds i8, ptr %this, i64 96
  store i64 0, ptr %_M_node_count.i.i.i, align 8
  br label %if.end12

if.end12:                                         ; preds = %entry, %_ZNSt3mapIN4cvc58internal12NodeTemplateILb1EEES_INS1_6theory11quantifiers8NodeRoleEbSt4lessIS6_ESaISt4pairIKS6_bEEES7_IS3_ESaIS9_IKS3_SD_EEE5clearEv.exit, %for.end
  %changed.0.lcssa20 = phi i1 [ true, %_ZNSt3mapIN4cvc58internal12NodeTemplateILb1EEES_INS1_6theory11quantifiers8NodeRoleEbSt4lessIS6_ESaISt4pairIKS6_bEEES7_IS3_ESaIS9_IKS3_SD_EEE5clearEv.exit ], [ false, %for.end ], [ false, %entry ]
  %d_curr_role = getelementptr inbounds i8, ptr %this, i64 120
  store i32 %nrole, ptr %d_curr_role, align 8
  ret i1 %changed.0.lcssa20
}